ccopy_reg
_reconstructor
p0
(cFWCore.ParameterSet.Config
Process
p1
c__builtin__
object
p2
Ntp3
Rp4
(dp5
S'MessageLogger'
p6
g0
(cFWCore.ParameterSet.Modules
Service
p7
g2
Ntp8
Rp9
(dp10
S'_isFrozen'
p11
I00
sS'suppressInfo'
p12
g0
(cFWCore.ParameterSet.Types
vstring
p13
c__builtin__
list
p14
(lp15
tp16
Rp17
(dp18
g11
I00
sS'_ParameterTypeBase__isTracked'
p19
I00
sS'_isModified'
p20
I00
sS'_nPerLine'
p21
I1
sbsS'suppressDebug'
p22
g0
(g13
g14
(lp23
tp24
Rp25
(dp26
g11
I00
sg19
I00
sg20
I00
sg21
I1
sbsS'cout'
p27
g0
(cFWCore.ParameterSet.Types
PSet
p28
g2
Ntp29
Rp30
(dp31
g11
I00
sg19
I00
sS'placeholder'
p32
g0
(cFWCore.ParameterSet.Types
bool
p33
g2
Ntp34
Rp35
(dp36
g11
I00
sg19
I00
sS'_value'
p37
I01
sg20
I00
sbsg20
I00
sS'_Parameterizable__parameterNames'
p38
(lp39
g32
asbsS'_lineNumber'
p40
I10
sS'debugModules'
p41
g0
(g13
g14
(lp42
tp43
Rp44
(dp45
g11
I00
sg19
I00
sg20
I00
sg21
I1
sbsS'_TypedParameterizable__type'
p46
g6
sS'fwkJobReports'
p47
g0
(g13
g14
(lp48
S'FrameworkJobReport'
p49
atp50
Rp51
(dp52
g11
I00
sg19
I00
sg20
I00
sg21
I1
sbsg38
(lp53
g12
aS'debugs'
p54
ag22
ag27
aS'cerr_stats'
p55
aS'warnings'
p56
aS'default'
p57
aS'statistics'
p58
aS'cerr'
p59
ag49
aS'suppressWarning'
p60
aS'errors'
p61
aS'destinations'
p62
ag41
aS'infos'
p63
aS'categories'
p64
ag47
asg58
g0
(g13
g14
(lp65
g55
atp66
Rp67
(dp68
g11
I00
sg19
I00
sg20
I00
sg21
I1
sbsS'_filename'
p69
S'/cvmfs/cms.cern.ch/slc6_amd64_gcc530/cms/cmssw/CMSSW_8_0_25/python/FWCore/ParameterSet/Modules.py'
p70
sg62
g0
(g13
g14
(lp71
g56
ag61
ag63
ag54
ag27
ag59
atp72
Rp73
(dp74
g11
I00
sg19
I00
sg20
I00
sg21
I1
sbsg54
g0
(g28
g2
Ntp75
Rp76
(dp77
g11
I00
sg19
I00
sg32
g0
(g33
g2
Ntp78
Rp79
(dp80
g11
I00
sg19
I00
sg37
I01
sg20
I00
sbsg20
I00
sg38
(lp81
g32
asbsg56
g0
(g28
g2
Ntp82
Rp83
(dp84
g11
I00
sg19
I00
sg32
g0
(g33
g2
Ntp85
Rp86
(dp87
g11
I00
sg19
I00
sg37
I01
sg20
I00
sbsg20
I00
sg38
(lp88
g32
asbsg61
g0
(g28
g2
Ntp89
Rp90
(dp91
g11
I00
sg19
I00
sg32
g0
(g33
g2
Ntp92
Rp93
(dp94
g11
I00
sg19
I00
sg37
I01
sg20
I00
sbsg20
I00
sg38
(lp95
g32
asbsg49
g0
(g28
g2
Ntp96
Rp97
(dp98
g11
I00
sg19
I00
sg20
I00
sg57
g0
(g28
g2
Ntp99
Rp100
(dp101
g11
I00
sg19
I00
sS'limit'
p102
g0
(cFWCore.ParameterSet.Types
int32
p103
g2
Ntp104
Rp105
(dp106
g11
I00
sg19
I00
sg37
I0
sg20
I00
sbsg20
I00
sg38
(lp107
g102
asbsS'FwkJob'
p108
g0
(g28
g2
Ntp109
Rp110
(dp111
g11
I00
sg19
I00
sg20
I00
sg102
g0
(g103
g2
Ntp112
Rp113
(dp114
g11
I00
sg19
I00
sg37
I10000000
sg20
I00
sbsg38
(lp115
S'optionalPSet'
p116
ag102
asg116
g0
(g33
g2
Ntp117
Rp118
(dp119
g11
I00
sg19
I00
sg37
I01
sg20
I00
sbsbsg38
(lp120
g57
ag116
ag108
asg116
g0
(g33
g2
Ntp121
Rp122
(dp123
g11
I00
sg19
I00
sg37
I01
sg20
I00
sbsbsg60
g0
(g13
g14
(lp124
tp125
Rp126
(dp127
g11
I00
sg19
I00
sg20
I00
sg21
I1
sbsg63
g0
(g28
g2
Ntp128
Rp129
(dp130
g11
I00
sg19
I00
sg20
I00
sS'Root_NoDictionary'
p131
g0
(g28
g2
Ntp132
Rp133
(dp134
g11
I00
sg19
I00
sg20
I00
sg102
g0
(g103
g2
Ntp135
Rp136
(dp137
g11
I00
sg19
I00
sg37
I0
sg20
I00
sbsg38
(lp138
g116
ag102
asg116
g0
(g33
g2
Ntp139
Rp140
(dp141
g11
I00
sg19
I00
sg37
I01
sg20
I00
sbsbsg38
(lp142
g116
ag131
ag32
asg116
g0
(g33
g2
Ntp143
Rp144
(dp145
g11
I00
sg19
I00
sg37
I01
sg20
I00
sbsg32
g0
(g33
g2
Ntp146
Rp147
(dp148
g11
I00
sg19
I00
sg37
I01
sg20
I00
sbsbsg64
g0
(g13
g14
(lp149
g108
aS'FwkReport'
p150
aS'FwkSummary'
p151
ag131
atp152
Rp153
(dp154
g11
I00
sg19
I00
sg20
I00
sg21
I1
sbsg20
I00
sg55
g0
(g28
g2
Ntp155
Rp156
(dp157
g11
I00
sg19
I00
sg20
I00
sg116
g0
(g33
g2
Ntp158
Rp159
(dp160
g11
I00
sg19
I00
sg37
I01
sg20
I00
sbsg38
(lp161
S'threshold'
p162
aS'output'
p163
ag116
asg162
g0
(cFWCore.ParameterSet.Types
string
p164
g2
Ntp165
Rp166
(dp167
g11
I00
sg19
I00
sg37
S'WARNING'
p168
sg20
I00
sbsg163
g0
(g164
g2
Ntp169
Rp170
(dp171
g11
I00
sg19
I00
sg37
g59
sg20
I00
sbsbsg57
g0
(g28
g2
Ntp172
Rp173
(dp174
g11
I00
sg19
I00
sg20
I00
sg38
(lp175
sbsg59
g0
(g28
g2
Ntp176
Rp177
(dp178
g11
I00
sg19
I00
sS'noTimeStamps'
p179
g0
(g33
g2
Ntp180
Rp181
(dp182
g11
I00
sg19
I00
sg37
I00
sg20
I00
sbsg150
g0
(g28
g2
Ntp183
Rp184
(dp185
g11
I00
sg19
I00
sg20
I01
sS'reportEvery'
p186
g0
(g103
g2
Ntp187
Rp188
(dp189
g11
I00
sg19
I00
sg37
I1
sg20
I00
sbsg102
g0
(g103
g2
Ntp190
Rp191
(dp192
g11
I00
sg19
I00
sg37
I10000000
sg20
I00
sbsg38
(lp193
g186
ag116
ag102
asg116
g0
(g33
g2
Ntp194
Rp195
(dp196
g11
I00
sg19
I00
sg37
I01
sg20
I00
sbsbsg20
I00
sg57
g0
(g28
g2
Ntp197
Rp198
(dp199
g11
I00
sg19
I00
sg102
g0
(g103
g2
Ntp200
Rp201
(dp202
g11
I00
sg19
I00
sg37
I10000000
sg20
I00
sbsg20
I00
sg38
(lp203
g102
asbsg131
g0
(g28
g2
Ntp204
Rp205
(dp206
g11
I00
sg19
I00
sg20
I00
sg102
g0
(g103
g2
Ntp207
Rp208
(dp209
g11
I00
sg19
I00
sg37
I0
sg20
I00
sbsg38
(lp210
g116
ag102
asg116
g0
(g33
g2
Ntp211
Rp212
(dp213
g11
I00
sg19
I00
sg37
I01
sg20
I00
sbsbsS'INFO'
p214
g0
(g28
g2
Ntp215
Rp216
(dp217
g11
I00
sg19
I00
sg102
g0
(g103
g2
Ntp218
Rp219
(dp220
g11
I00
sg19
I00
sg37
I0
sg20
I00
sbsg20
I00
sg38
(lp221
g102
asbsg116
g0
(g33
g2
Ntp222
Rp223
(dp224
g11
I00
sg19
I00
sg37
I01
sg20
I00
sbsg108
g0
(g28
g2
Ntp225
Rp226
(dp227
g11
I00
sg19
I00
sg20
I00
sg102
g0
(g103
g2
Ntp228
Rp229
(dp230
g11
I00
sg19
I00
sg37
I0
sg20
I00
sbsg38
(lp231
g116
ag102
asg116
g0
(g33
g2
Ntp232
Rp233
(dp234
g11
I00
sg19
I00
sg37
I01
sg20
I00
sbsbsg151
g0
(g28
g2
Ntp235
Rp236
(dp237
g11
I00
sg19
I00
sg20
I00
sg186
g0
(g103
g2
Ntp238
Rp239
(dp240
g11
I00
sg19
I00
sg37
I1
sg20
I00
sbsg102
g0
(g103
g2
Ntp241
Rp242
(dp243
g11
I00
sg19
I00
sg37
I10000000
sg20
I00
sbsg38
(lp244
g186
ag116
ag102
asg116
g0
(g33
g2
Ntp245
Rp246
(dp247
g11
I00
sg19
I00
sg37
I01
sg20
I00
sbsbsg38
(lp248
g214
ag179
ag150
ag57
ag131
ag162
ag108
ag151
ag116
asg162
g0
(g164
g2
Ntp249
Rp250
(dp251
g11
I00
sg19
I00
sg37
g214
sg20
I00
sbsbsbsS'CaloGeometryBuilder'
p252
g0
(cFWCore.ParameterSet.Modules
ESProducer
p253
g2
Ntp254
Rp255
(dp256
g38
(lp257
S'SelectedCalos'
p258
asg11
I00
sg20
I00
sg40
I40
sg69
g70
sg258
g0
(g13
g14
(lp259
S'HCAL'
p260
aS'ZDC'
p261
aS'CASTOR'
p262
aS'EcalBarrel'
p263
aS'EcalEndcap'
p264
aS'EcalPreshower'
p265
aS'TOWER'
p266
atp267
Rp268
(dp269
g11
I00
sg19
I01
sg20
I00
sg21
I1
sbsS'_Labelable__label'
p270
g252
sg46
g252
sbsS'topGenSequence'
p271
g0
(cFWCore.ParameterSet.SequenceTypes
Sequence
p272
g2
Ntp273
Rp274
(dp275
g11
I00
sS'_seq'
p276
Nsg20
I00
sg270
g271
sbsS'_Process__sequences'
p277
(dp278
g271
g274
sS'JECsequence'
p279
g0
(g272
g2
Ntp280
Rp281
(dp282
g11
I00
sg276
Nsg20
I00
sg270
g279
sbsS'tupleProductionSequence'
p283
g0
(g272
g2
Ntp284
Rp285
(dp286
g11
I00
sg276
g0
(cFWCore.ParameterSet.SequenceTypes
_SequenceCollection
p287
g2
Ntp288
Rp289
(dp290
S'_collection'
p291
(lp292
g0
(cFWCore.ParameterSet.Modules
EDAnalyzer
p293
g2
Ntp294
Rp295
(dp296
g38
(lp297
S'saveGenTopInfo'
p298
aS'lheEventProduct'
p299
aS'taus'
p300
aS'isMC'
p301
aS'genEvent'
p302
aS'triggerSetup'
p303
aS'topGenEvent'
p304
aS'puInfo'
p305
asg11
I00
sg20
I00
sg298
g0
(g33
g2
Ntp306
Rp307
(dp308
g11
I00
sg19
I01
sg37
I00
sg20
I00
sbsg40
I173
sg69
S'/afs/cern.ch/work/m/mgrippo/TauTrigger_2017_prod/CMSSW_8_0_25/src/h-tautau/Production/python/Production.py'
p309
sg299
g0
(cFWCore.ParameterSet.Types
InputTag
p310
g2
Ntp311
Rp312
(dp313
g11
I00
sg19
I01
sg20
I00
sS'_InputTag__moduleLabel'
p314
S'externalLHEProducer'
p315
sS'_InputTag__processName'
p316
S''
p317
sS'_InputTag__productInstance'
p318
g317
sbsg300
g0
(g310
g2
Ntp319
Rp320
(dp321
g11
I00
sg19
I01
sg20
I00
sg314
S'slimmedTaus'
p322
sg316
g317
sg318
g317
sbsg270
S'summaryTupleProducer'
p323
sg301
g0
(g33
g2
Ntp324
Rp325
(dp326
g11
I00
sg19
I01
sg37
I01
sg20
I00
sbsg302
g0
(g310
g2
Ntp327
Rp328
(dp329
g11
I00
sg19
I01
sg20
I00
sg314
S'generator'
p330
sg316
g317
sg318
g317
sbsg303
g0
(cFWCore.ParameterSet.Types
VPSet
p331
g14
(lp332
g0
(g28
g2
Ntp333
Rp334
(dp335
g11
I00
sg19
I01
sS'hltPaths'
p336
g0
(g331
g14
(lp337
g0
(g28
g2
Ntp338
Rp339
(dp340
g11
I00
sg19
I01
sg20
I00
sS'filters2'
p341
g0
(g13
g14
(lp342
S'hltDoublePFTau35TrackPt1MediumCombinedIsolationDz02Reg'
p343
atp344
Rp345
(dp346
g11
I00
sg19
I00
sg20
I00
sg21
I1
sbsS'filters1'
p347
g0
(g13
g14
(lp348
g343
atp349
Rp350
(dp351
g11
I00
sg19
I00
sg20
I00
sg21
I1
sbsS'nLegs'
p352
g0
(cFWCore.ParameterSet.Types
uint32
p353
g2
Ntp354
Rp355
(dp356
g11
I00
sg19
I00
sg37
I2
sg20
I00
sbsg38
(lp357
g352
ag341
ag347
aS'pattern'
p358
asg358
g0
(g164
g2
Ntp359
Rp360
(dp361
g11
I00
sg19
I01
sg37
S'HLT_DoubleMediumCombinedIsoPFTau35_Trk1_eta2p1_Reg_v'
p362
sg20
I00
sbsbatp363
Rp364
(dp365
g11
I00
sg19
I01
sg20
I00
sg21
I1
sbsg20
I00
sg38
(lp366
g336
aS'channel'
p367
asg367
g0
(g164
g2
Ntp368
Rp369
(dp370
g11
I00
sg19
I01
sg37
S'tauTau'
p371
sg20
I00
sbsbatp372
Rp373
(dp374
g11
I00
sg19
I01
sg20
I00
sg21
I1
sbsg304
g0
(g310
g2
Ntp375
Rp376
(dp377
g11
I00
sg19
I01
sg20
I00
sg314
S'genEvt'
p378
sg316
g317
sg318
g317
sbsg46
S'SummaryProducer'
p379
sg305
g0
(g310
g2
Ntp380
Rp381
(dp382
g11
I00
sg19
I01
sg20
I00
sg314
S'slimmedAddPileupInfo'
p383
sg316
g317
sg318
g317
sbsbag0
(g293
g2
Ntp384
Rp385
(dp386
g11
I00
sg40
I229
sS'muonSrc'
p387
g0
(g310
g2
Ntp388
Rp389
(dp390
g11
I00
sg19
I01
sg20
I00
sg314
S'slimmedMuons'
p391
sg316
g317
sg318
g317
sbsS'genJets'
p392
g0
(g310
g2
Ntp393
Rp394
(dp395
g11
I00
sg19
I01
sg20
I00
sg314
S'slimmedGenJets'
p396
sg316
g317
sg318
g317
sbsS'saveGenBosonInfo'
p397
g0
(g33
g2
Ntp398
Rp399
(dp400
g11
I00
sg19
I01
sg37
I00
sg20
I00
sbsg46
S'TupleProducer_tauTau'
p401
sg38
(lp402
g387
ag392
ag397
aS'nJetsRecoilCorr'
p403
ag298
aS'prescales'
p404
aS'pfMETSrc'
p405
aS'runSVfit'
p406
ag304
aS'fatJetSrc'
p407
aS'PUInfo'
p408
aS'tauSrc'
p409
aS'electronSrc'
p410
aS'energyScales'
p411
aS'objects'
p412
aS'genParticles'
p413
aS'applyTriggerMatch'
p414
aS'lheEventProducts'
p415
ag336
aS'vtxSrc'
p416
aS'saveGenJetInfo'
p417
aS'productionMode'
p418
aS'jetSrc'
p419
ag301
aS'genEventInfoProduct'
p420
aS'runKinFit'
p421
aS'applyRecoilCorr'
p422
asg403
g0
(g103
g2
Ntp423
Rp424
(dp425
g11
I00
sg19
I01
sg37
I0
sg20
I00
sbsg298
g0
(g33
g2
Ntp426
Rp427
(dp428
g11
I00
sg19
I01
sg37
I00
sg20
I00
sbsg404
g0
(g310
g2
Ntp429
Rp430
(dp431
g11
I00
sg19
I01
sg20
I00
sg314
S'patTrigger'
p432
sg316
g317
sg318
g317
sbsg69
g309
sg405
g0
(g310
g2
Ntp433
Rp434
(dp435
g11
I00
sg19
I01
sg20
I00
sg314
S'slimmedMETs'
p436
sg316
g317
sg318
g317
sbsg406
g0
(g33
g2
Ntp437
Rp438
(dp439
g11
I00
sg19
I01
sg37
I00
sg20
I00
sbsg304
g0
(g310
g2
Ntp440
Rp441
(dp442
g11
I00
sg19
I01
sg20
I00
sg314
g378
sg316
g317
sg318
g317
sbsg407
g0
(g310
g2
Ntp443
Rp444
(dp445
g11
I00
sg19
I01
sg20
I00
sg314
S'slimmedJetsAK8'
p446
sg316
g317
sg318
g317
sbsg408
g0
(g310
g2
Ntp447
Rp448
(dp449
g11
I00
sg19
I01
sg20
I00
sg314
g383
sg316
g317
sg318
g317
sbsg409
g0
(g310
g2
Ntp450
Rp451
(dp452
g11
I00
sg19
I01
sg20
I00
sg314
g322
sg316
g317
sg318
g317
sbsg410
g0
(g310
g2
Ntp453
Rp454
(dp455
g11
I00
sg19
I01
sg20
I00
sg314
S'slimmedElectrons'
p456
sg316
g317
sg318
g317
sbsg411
g0
(g13
g14
(lp457
S'Central'
p458
atp459
Rp460
(dp461
g11
I00
sg19
I01
sg20
I00
sg21
I1
sbsg412
g0
(g310
g2
Ntp462
Rp463
(dp464
g11
I00
sg19
I01
sg20
I00
sg314
S'selectedPatTriggerCustom'
p465
sg316
g317
sg318
g317
sbsg270
S'tupleProducer_tauTau'
p466
sg413
g0
(g310
g2
Ntp467
Rp468
(dp469
g11
I00
sg19
I01
sg20
I00
sg314
S'prunedGenParticles'
p470
sg316
g317
sg318
g317
sbsg414
g0
(g33
g2
Ntp471
Rp472
(dp473
g11
I00
sg19
I01
sg37
I01
sg20
I00
sbsg415
g0
(g310
g2
Ntp474
Rp475
(dp476
g11
I00
sg19
I01
sg20
I00
sg314
g315
sg316
g317
sg318
g317
sbsg336
g364
sg20
I00
sg416
g0
(g310
g2
Ntp477
Rp478
(dp479
g11
I00
sg19
I01
sg20
I00
sg314
S'offlineSlimmedPrimaryVertices'
p480
sg316
g317
sg318
g317
sbsg417
g0
(g33
g2
Ntp481
Rp482
(dp483
g11
I00
sg19
I01
sg37
I01
sg20
I00
sbsg418
g0
(g164
g2
Ntp484
Rp485
(dp486
g11
I00
sg19
I01
sg37
S'h_tt_sm'
p487
sg20
I00
sbsg419
g0
(g310
g2
Ntp488
Rp489
(dp490
g11
I00
sg19
I01
sg20
I00
sg314
S'slimmedJets'
p491
sg316
g317
sg318
g317
sbsg301
g0
(g33
g2
Ntp492
Rp493
(dp494
g11
I00
sg19
I01
sg37
I01
sg20
I00
sbsg420
g0
(g310
g2
Ntp495
Rp496
(dp497
g11
I00
sg19
I01
sg20
I00
sg314
g330
sg316
g317
sg318
g317
sbsg421
g0
(g33
g2
Ntp498
Rp499
(dp500
g11
I00
sg19
I01
sg37
I00
sg20
I00
sbsg422
g0
(g33
g2
Ntp501
Rp502
(dp503
g11
I00
sg19
I01
sg37
I00
sg20
I00
sbsbasbsg20
I00
sg270
g283
sbssS'siStripBackPlaneCorrectionDepESProducer'
p504
g0
(g253
g2
Ntp505
Rp506
(dp507
g38
(lp508
S'LatencyRecord'
p509
aS'BackPlaneCorrectionDeconvMode'
p510
aS'BackPlaneCorrectionPeakMode'
p511
asg11
I00
sg20
I00
sg40
I40
sg69
g70
sg509
g0
(g28
g2
Ntp512
Rp513
(dp514
g11
I00
sg19
I01
sg20
I00
sS'label'
p515
g0
(g164
g2
Ntp516
Rp517
(dp518
g11
I00
sg19
I00
sg37
g317
sg20
I00
sbsS'record'
p519
g0
(g164
g2
Ntp520
Rp521
(dp522
g11
I00
sg19
I01
sg37
S'SiStripLatencyRcd'
p523
sg20
I00
sbsg38
(lp524
g519
ag515
asbsg511
g0
(g28
g2
Ntp525
Rp526
(dp527
g11
I00
sg19
I01
sg20
I00
sg515
g0
(g164
g2
Ntp528
Rp529
(dp530
g11
I00
sg19
I00
sg37
S'peak'
p531
sg20
I00
sbsg519
g0
(g164
g2
Ntp532
Rp533
(dp534
g11
I00
sg19
I01
sg37
S'SiStripBackPlaneCorrectionRcd'
p535
sg20
I00
sbsg38
(lp536
g519
ag515
asbsg270
g504
sg510
g0
(g28
g2
Ntp537
Rp538
(dp539
g11
I00
sg19
I01
sg20
I00
sg515
g0
(g164
g2
Ntp540
Rp541
(dp542
g11
I00
sg19
I00
sg37
S'deconvolution'
p543
sg20
I00
sbsg519
g0
(g164
g2
Ntp544
Rp545
(dp546
g11
I00
sg19
I01
sg37
g535
sg20
I00
sbsg38
(lp547
g519
ag515
asbsg46
S'SiStripBackPlaneCorrectionDepESProducer'
p548
sbsS'_Process__services'
p549
(dp550
g6
g9
sS'TFileService'
p551
g0
(g7
g2
Ntp552
Rp553
(dp554
g38
(lp555
S'fileName'
p556
asg11
I00
sg20
I00
sg40
I10
sg69
g70
sg556
g0
(g164
g2
Ntp557
Rp558
(dp559
g11
I00
sg19
I01
sg37
S'eventTuple.root'
p560
sg20
I00
sbsg46
g551
sbssS'siStripQualityESProducer'
p561
g0
(g253
g2
Ntp562
Rp563
(dp564
g38
(lp565
S'appendToDataLabel'
p566
aS'PrintDebugOutput'
p567
aS'ThresholdForReducedGranularity'
p568
aS'UseEmptyRunInfo'
p569
aS'ReduceGranularity'
p570
aS'ListOfRecordToMerge'
p571
asg11
I00
sg566
g0
(g164
g2
Ntp572
Rp573
(dp574
g11
I00
sg19
I01
sg37
g317
sg20
I00
sbsg20
I01
sg40
I40
sg69
g70
sg568
g0
(cFWCore.ParameterSet.Types
double
p575
g2
Ntp576
Rp577
(dp578
g11
I00
sg19
I01
sg37
F0.3
sg20
I00
sbsg270
g561
sg569
g0
(g33
g2
Ntp579
Rp580
(dp581
g11
I00
sg19
I01
sg37
I00
sg20
I00
sbsg570
g0
(g33
g2
Ntp582
Rp583
(dp584
g11
I00
sg19
I01
sg37
I00
sg20
I00
sbsg571
g0
(g331
g14
(lp585
g0
(g28
g2
Ntp586
Rp587
(dp588
g11
I00
sg19
I01
sg20
I00
sg519
g0
(g164
g2
Ntp589
Rp590
(dp591
g11
I00
sg19
I01
sg37
S'SiStripDetVOffRcd'
p592
sg20
I00
sbsS'tag'
p593
g0
(g164
g2
Ntp594
Rp595
(dp596
g11
I00
sg19
I01
sg37
g317
sg20
I00
sbsg38
(lp597
g519
ag593
asbag0
(g28
g2
Ntp598
Rp599
(dp600
g11
I00
sg19
I01
sg20
I00
sg519
g0
(g164
g2
Ntp601
Rp602
(dp603
g11
I00
sg19
I01
sg37
S'SiStripDetCablingRcd'
p604
sg20
I00
sbsg593
g0
(g164
g2
Ntp605
Rp606
(dp607
g11
I00
sg19
I01
sg37
g317
sg20
I00
sbsg38
(lp608
g519
ag593
asbag0
(g28
g2
Ntp609
Rp610
(dp611
g11
I00
sg19
I01
sg20
I00
sg519
g0
(g164
g2
Ntp612
Rp613
(dp614
g11
I00
sg19
I01
sg37
S'RunInfoRcd'
p615
sg20
I00
sbsg593
g0
(g164
g2
Ntp616
Rp617
(dp618
g11
I00
sg19
I01
sg37
g317
sg20
I00
sbsg38
(lp619
g519
ag593
asbag0
(g28
g2
Ntp620
Rp621
(dp622
g11
I00
sg19
I01
sg20
I00
sg519
g0
(g164
g2
Ntp623
Rp624
(dp625
g11
I00
sg19
I01
sg37
S'SiStripBadChannelRcd'
p626
sg20
I00
sbsg593
g0
(g164
g2
Ntp627
Rp628
(dp629
g11
I00
sg19
I01
sg37
g317
sg20
I00
sbsg38
(lp630
g519
ag593
asbag0
(g28
g2
Ntp631
Rp632
(dp633
g11
I00
sg19
I01
sg20
I00
sg519
g0
(g164
g2
Ntp634
Rp635
(dp636
g11
I00
sg19
I01
sg37
S'SiStripBadFiberRcd'
p637
sg20
I00
sbsg593
g0
(g164
g2
Ntp638
Rp639
(dp640
g11
I00
sg19
I01
sg37
g317
sg20
I00
sbsg38
(lp641
g519
ag593
asbag0
(g28
g2
Ntp642
Rp643
(dp644
g11
I00
sg19
I01
sg20
I00
sg519
g0
(g164
g2
Ntp645
Rp646
(dp647
g11
I00
sg19
I01
sg37
S'SiStripBadModuleRcd'
p648
sg20
I00
sbsg593
g0
(g164
g2
Ntp649
Rp650
(dp651
g11
I00
sg19
I01
sg37
g317
sg20
I00
sbsg38
(lp652
g519
ag593
asbag0
(g28
g2
Ntp653
Rp654
(dp655
g11
I00
sg19
I01
sg20
I00
sg519
g0
(g164
g2
Ntp656
Rp657
(dp658
g11
I00
sg19
I01
sg37
S'SiStripBadStripRcd'
p659
sg20
I00
sbsg593
g0
(g164
g2
Ntp660
Rp661
(dp662
g11
I00
sg19
I01
sg37
g317
sg20
I00
sbsg38
(lp663
g519
ag593
asbatp664
Rp665
(dp666
g11
I00
sg19
I01
sg20
I00
sg21
I1
sbsg46
S'SiStripQualityESProducer'
p667
sg567
g0
(g33
g2
Ntp668
Rp669
(dp670
g11
I00
sg19
I01
sg37
I00
sg20
I00
sbsbsS'EcalLaserCorrectionService'
p671
g0
(g253
g2
Ntp672
Rp673
(dp674
g38
(lp675
sg11
I00
sg20
I00
sg40
I40
sg69
g70
sg270
g671
sg46
g671
sbsS'DTGeometryESModule'
p676
g0
(g253
g2
Ntp677
Rp678
(dp679
g38
(lp680
g566
aS'fromDDD'
p681
aS'applyAlignment'
p682
aS'alignmentsLabel'
p683
asg11
I00
sg566
g0
(g164
g2
Ntp684
Rp685
(dp686
g11
I00
sg19
I01
sg37
g317
sg20
I00
sbsg20
I00
sg683
g0
(g164
g2
Ntp687
Rp688
(dp689
g11
I00
sg19
I01
sg37
g317
sg20
I00
sbsg69
g70
sg40
I40
sg270
g676
sg681
g0
(g33
g2
Ntp690
Rp691
(dp692
g11
I00
sg19
I01
sg37
I00
sg20
I00
sbsg682
g0
(g33
g2
Ntp693
Rp694
(dp695
g11
I00
sg19
I01
sg37
I01
sg20
I00
sbsg46
g676
sbsS'_Process__source'
p696
g0
(cFWCore.ParameterSet.Modules
Source
p697
g2
Ntp698
Rp699
(dp700
g38
(lp701
S'fileNames'
p702
asg11
I00
sg20
I00
sg40
I175
sg69
g70
sg702
g0
(g13
g14
(lp703
tp704
Rp705
(dp706
g11
I00
sg19
I00
sg20
I00
sg21
I1
sbsg46
S'PoolSource'
p707
sbsS'VolumeBasedMagneticFieldESProducer'
p708
g0
(g253
g2
Ntp709
Rp710
(dp711
g38
(lp712
S'valueOverride'
p713
aS'debugBuilder'
p714
ag515
asg11
I00
sg713
g0
(g103
g2
Ntp715
Rp716
(dp717
g11
I00
sg19
I01
sg37
I-1
sg20
I00
sbsg40
I40
sg69
g70
sg515
g0
(g164
g2
Ntp718
Rp719
(dp720
g11
I00
sg19
I00
sg37
g317
sg20
I00
sbsg714
g0
(g33
g2
Ntp721
Rp722
(dp723
g11
I00
sg19
I00
sg37
I00
sg20
I00
sbsg270
g708
sg46
S'VolumeBasedMagneticFieldESProducerFromDB'
p724
sg20
I00
sbsS'_Process__aliases'
p725
(dp726
sS'eegeom'
p727
g0
(cFWCore.ParameterSet.Modules
ESSource
p728
g2
Ntp729
Rp730
(dp731
g38
(lp732
S'iovIsRunNotTime'
p733
aS'recordName'
p734
aS'firstValid'
p735
asg11
I00
sg20
I00
sg40
I6
sg734
g0
(g164
g2
Ntp736
Rp737
(dp738
g11
I00
sg19
I01
sg37
S'EcalMappingRcd'
p739
sg20
I00
sbsg69
S'/cvmfs/cms.cern.ch/slc6_amd64_gcc530/cms/cmssw/CMSSW_8_0_25/python/Geometry/EcalMapping/EcalMappingRecord_cfi.py'
p740
sg735
g0
(cFWCore.ParameterSet.Types
vuint32
p741
g14
(lp742
I1
atp743
Rp744
(dp745
g11
I00
sg19
I01
sg20
I00
sbsg270
g727
sg733
g0
(g33
g2
Ntp746
Rp747
(dp748
g11
I00
sg19
I01
sg37
I01
sg20
I00
sbsg46
S'EmptyESSource'
p749
sbsS'CastorGeometryFromDBEP'
p750
g0
(g253
g2
Ntp751
Rp752
(dp753
g38
(lp754
g682
asg11
I00
sg20
I00
sg40
I40
sg69
g70
sg270
g750
sg682
g0
(g33
g2
Ntp755
Rp756
(dp757
g11
I00
sg19
I01
sg37
I00
sg20
I00
sbsg46
g750
sbsS'CaloTopologyBuilder'
p758
g0
(g253
g2
Ntp759
Rp760
(dp761
g38
(lp762
sg11
I00
sg20
I00
sg40
I40
sg69
g70
sg270
g758
sg46
g758
sbsS'GlobalTrackingGeometryESProducer'
p763
g0
(g253
g2
Ntp764
Rp765
(dp766
g38
(lp767
sg11
I00
sg20
I00
sg40
I40
sg69
g70
sg270
g763
sg46
g763
sbsS'trackerGeometryDB'
p768
g0
(g253
g2
Ntp769
Rp770
(dp771
g38
(lp772
g566
ag681
ag682
ag683
asg11
I00
sg566
g0
(g164
g2
Ntp773
Rp774
(dp775
g11
I00
sg19
I01
sg37
g317
sg20
I00
sbsg20
I00
sg683
g0
(g164
g2
Ntp776
Rp777
(dp778
g11
I00
sg19
I01
sg37
g317
sg20
I00
sbsg69
g70
sg40
I40
sg270
g768
sg681
g0
(g33
g2
Ntp779
Rp780
(dp781
g11
I00
sg19
I01
sg37
I00
sg20
I00
sbsg682
g0
(g33
g2
Ntp782
Rp783
(dp784
g11
I00
sg19
I01
sg37
I01
sg20
I00
sbsg46
S'TrackerDigiGeometryESModule'
p785
sbsS'stripCPEESProducer'
p786
g0
(g253
g2
Ntp787
Rp788
(dp789
g38
(lp790
S'ComponentType'
p791
aS'ComponentName'
p792
aS'parameters'
p793
asg11
I00
sg20
I00
sg793
g0
(g28
g2
Ntp794
Rp795
(dp796
g11
I00
sg19
I01
sg20
I00
sg38
(lp797
sbsg40
I40
sg792
g0
(g164
g2
Ntp798
Rp799
(dp800
g11
I00
sg19
I01
sg37
S'stripCPE'
p801
sg20
I00
sbsg791
g0
(g164
g2
Ntp802
Rp803
(dp804
g11
I00
sg19
I01
sg37
S'SimpleStripCPE'
p805
sg20
I00
sbsg69
g70
sg270
g786
sg46
S'StripCPEESProducer'
p806
sbsS'siStripLorentzAngleDepESProducer'
p807
g0
(g253
g2
Ntp808
Rp809
(dp810
g38
(lp811
g509
aS'LorentzAngleDeconvMode'
p812
aS'LorentzAnglePeakMode'
p813
asg11
I00
sg20
I00
sg40
I40
sg69
g70
sg509
g0
(g28
g2
Ntp814
Rp815
(dp816
g11
I00
sg19
I01
sg20
I00
sg515
g0
(g164
g2
Ntp817
Rp818
(dp819
g11
I00
sg19
I00
sg37
g317
sg20
I00
sbsg519
g0
(g164
g2
Ntp820
Rp821
(dp822
g11
I00
sg19
I01
sg37
g523
sg20
I00
sbsg38
(lp823
g519
ag515
asbsg270
g807
sg813
g0
(g28
g2
Ntp824
Rp825
(dp826
g11
I00
sg19
I01
sg20
I00
sg515
g0
(g164
g2
Ntp827
Rp828
(dp829
g11
I00
sg19
I00
sg37
g531
sg20
I00
sbsg519
g0
(g164
g2
Ntp830
Rp831
(dp832
g11
I00
sg19
I01
sg37
S'SiStripLorentzAngleRcd'
p833
sg20
I00
sbsg38
(lp834
g519
ag515
asbsg46
S'SiStripLorentzAngleDepESProducer'
p835
sg812
g0
(g28
g2
Ntp836
Rp837
(dp838
g11
I00
sg19
I01
sg20
I00
sg515
g0
(g164
g2
Ntp839
Rp840
(dp841
g11
I00
sg19
I00
sg37
g543
sg20
I00
sbsg519
g0
(g164
g2
Ntp842
Rp843
(dp844
g11
I00
sg19
I01
sg37
g833
sg20
I00
sbsg38
(lp845
g519
ag515
asbsbsS'hcalTopologyIdeal'
p846
g0
(g253
g2
Ntp847
Rp848
(dp849
g38
(lp850
S'Exclude'
p851
ag566
asg11
I00
sg566
g0
(g164
g2
Ntp852
Rp853
(dp854
g11
I00
sg19
I01
sg37
g317
sg20
I00
sbsg20
I00
sg40
I40
sg69
g70
sg270
g846
sg851
g0
(g164
g2
Ntp855
Rp856
(dp857
g11
I00
sg19
I00
sg37
g317
sg20
I00
sbsg46
S'HcalTopologyIdealEP'
p858
sbsS'_Process__psets'
p859
(dp860
S'maxEvents'
p861
g0
(g28
g2
Ntp862
Rp863
(dp864
g11
I00
sg19
I00
sg20
I00
sg38
(lp865
S'input'
p866
asg270
g861
sg866
g0
(g103
g2
Ntp867
Rp868
(dp869
g11
I00
sg19
I00
sg37
I0
sg20
I00
sbsbsS'options'
p870
g0
(g28
g2
Ntp871
Rp872
(dp873
g11
I00
sg19
I00
sg20
I01
sS'wantSummary'
p874
g0
(g33
g2
Ntp875
Rp876
(dp877
g11
I00
sg19
I00
sg37
I00
sg20
I00
sbsg38
(lp878
g874
aS'allowUnscheduled'
p879
asg270
g870
sg879
g0
(g33
g2
Ntp880
Rp881
(dp882
g11
I00
sg19
I00
sg37
I01
sg20
I00
sbsbssS'hcal_db_producer'
p883
g0
(g253
g2
Ntp884
Rp885
(dp886
g38
(lp887
S'file'
p888
aS'dump'
p889
asg11
I00
sg20
I00
sg889
g0
(g13
g14
(lp890
g317
atp891
Rp892
(dp893
g11
I00
sg19
I00
sg20
I00
sg21
I1
sbsg40
I40
sg69
g70
sg888
g0
(g164
g2
Ntp894
Rp895
(dp896
g11
I00
sg19
I00
sg37
g317
sg20
I00
sbsg270
g883
sg46
S'HcalDbProducer'
p897
sbsg551
g553
sS'_Process__essources'
p898
(dp899
S'es_hardcode'
p900
g0
(g728
g2
Ntp901
Rp902
(dp903
g38
(lp904
S'HERecalibration'
p905
aS'toGet'
p906
aS'GainWidthsForTrigPrims'
p907
aS'HEreCalibCutoff'
p908
aS'HFRecalibration'
p909
aS'iLumi'
p910
aS'testHFQIE10'
p911
asg11
I00
sg20
I00
sg40
I18
sg905
g0
(g33
g2
Ntp912
Rp913
(dp914
g11
I00
sg19
I01
sg37
I00
sg20
I00
sbsg906
g0
(g13
g14
(lp915
S'GainWidths'
p916
atp917
Rp918
(dp919
g11
I00
sg19
I00
sg20
I00
sg21
I1
sbsg907
g0
(g33
g2
Ntp920
Rp921
(dp922
g11
I00
sg19
I01
sg37
I00
sg20
I00
sbsg908
g0
(g575
g2
Ntp923
Rp924
(dp925
g11
I00
sg19
I01
sg37
F20.0
sg20
I00
sbsg909
g0
(g33
g2
Ntp926
Rp927
(dp928
g11
I00
sg19
I01
sg37
I00
sg20
I00
sbsg69
S'/cvmfs/cms.cern.ch/slc6_amd64_gcc530/cms/cmssw/CMSSW_8_0_25/python/CalibCalorimetry/HcalPlugins/Hcal_Conditions_forGlobalTag_cff.py'
p929
sg270
g900
sg910
g0
(g575
g2
Ntp930
Rp931
(dp932
g11
I00
sg19
I01
sg37
F-1.0
sg20
I00
sbsg911
g0
(g33
g2
Ntp933
Rp934
(dp935
g11
I00
sg19
I01
sg37
I00
sg20
I00
sbsg46
S'HcalHardcodeCalibrations'
p936
sbsg727
g730
sS'GlobalTag'
p937
g0
(g728
g2
Ntp938
Rp939
(dp940
g38
(lp941
S'DBParameters'
p942
aS'connect'
p943
aS'globaltag'
p944
aS'RefreshEachRun'
p945
aS'pfnPrefix'
p946
aS'snapshotTime'
p947
ag906
aS'pfnPostfix'
p948
aS'RefreshAlways'
p949
aS'ReconnectEachRun'
p950
aS'RefreshOpenIOVs'
p951
aS'DumpStat'
p952
asg11
I00
sg69
S'/cvmfs/cms.cern.ch/slc6_amd64_gcc530/cms/cmssw/CMSSW_8_0_25/python/CondCore/ESSources/CondDBESSource_cfi.py'
p953
sg20
I01
sg944
g0
(g164
g2
Ntp954
Rp955
(dp956
g11
I00
sg19
I01
sg37
S'80X_mcRun2_asymptotic_2016_TrancheIV_v6'
p957
sg20
I01
sbsg945
g0
(g33
g2
Ntp958
Rp959
(dp960
g11
I00
sg19
I00
sg37
I00
sg20
I00
sbsg946
g0
(g164
g2
Ntp961
Rp962
(dp963
g11
I00
sg19
I00
sg37
g317
sg20
I00
sbsg947
g0
(g164
g2
Ntp964
Rp965
(dp966
g11
I00
sg19
I01
sg37
g317
sg20
I00
sbsg906
g0
(g331
g14
(lp967
tp968
Rp969
(dp970
g11
I00
sg19
I01
sg20
I00
sg21
I1
sbsg948
g0
(g164
g2
Ntp971
Rp972
(dp973
g11
I00
sg19
I00
sg37
g317
sg20
I00
sbsg942
g0
(g28
g2
Ntp974
Rp975
(dp976
g11
I00
sg19
I01
sS'authenticationPath'
p977
g0
(g164
g2
Ntp978
Rp979
(dp980
g11
I00
sg19
I00
sg37
g317
sg20
I00
sbsg20
I00
sS'messageLevel'
p981
g0
(g103
g2
Ntp982
Rp983
(dp984
g11
I00
sg19
I00
sg37
I0
sg20
I00
sbsg38
(lp985
g981
aS'security'
p986
aS'authenticationSystem'
p987
ag977
asg986
g0
(g164
g2
Ntp988
Rp989
(dp990
g11
I00
sg19
I00
sg37
g317
sg20
I00
sbsg987
g0
(g103
g2
Ntp991
Rp992
(dp993
g11
I00
sg19
I00
sg37
I0
sg20
I00
sbsbsg949
g0
(g33
g2
Ntp994
Rp995
(dp996
g11
I00
sg19
I00
sg37
I00
sg20
I00
sbsg40
I19
sg943
g0
(g164
g2
Ntp997
Rp998
(dp999
g11
I00
sg19
I01
sg37
S'frontier://FrontierProd/CMS_CONDITIONS'
p1000
sg20
I00
sbsg950
g0
(g33
g2
Ntp1001
Rp1002
(dp1003
g11
I00
sg19
I00
sg37
I00
sg20
I00
sbsg270
g937
sg951
g0
(g33
g2
Ntp1004
Rp1005
(dp1006
g11
I00
sg19
I00
sg37
I00
sg20
I00
sbsg952
g0
(g33
g2
Ntp1007
Rp1008
(dp1009
g11
I00
sg19
I00
sg37
I00
sg20
I00
sbsg46
S'PoolDBESSource'
p1010
sbssS'HcalAlignmentEP'
p1011
g0
(g253
g2
Ntp1012
Rp1013
(dp1014
g38
(lp1015
sg11
I00
sg20
I00
sg40
I40
sg69
g70
sg270
g1011
sg46
g1011
sbsS'EcalPreshowerGeometryFromDBEP'
p1016
g0
(g253
g2
Ntp1017
Rp1018
(dp1019
g38
(lp1020
g682
asg11
I00
sg20
I01
sg40
I40
sg69
g70
sg270
g1016
sg682
g0
(g33
g2
Ntp1021
Rp1022
(dp1023
g11
I00
sg19
I01
sg37
I01
sg20
I01
sbsg46
g1016
sbsS'CastorDbProducer'
p1024
g0
(g253
g2
Ntp1025
Rp1026
(dp1027
g38
(lp1028
sg11
I00
sg20
I00
sg40
I40
sg69
g70
sg270
g1024
sg46
g1024
sbsS'hcalDDDRecConstants'
p1029
g0
(g253
g2
Ntp1030
Rp1031
(dp1032
g38
(lp1033
g566
asg11
I00
sg566
g0
(g164
g2
Ntp1034
Rp1035
(dp1036
g11
I00
sg19
I01
sg37
g317
sg20
I00
sbsg20
I00
sg40
I40
sg69
g70
sg270
g1029
sg46
S'HcalDDDRecConstantsESModule'
p1037
sbsg861
g863
sS'source'
p1038
g699
sS'CSCGeometryESModule'
p1039
g0
(g253
g2
Ntp1040
Rp1041
(dp1042
g38
(lp1043
g566
aS'useDDD'
p1044
aS'debugV'
p1045
aS'useGangedStripsInME1a'
p1046
ag683
aS'useOnlyWiresInME1a'
p1047
aS'useRealWireGeometry'
p1048
aS'useCentreTIOffsets'
p1049
ag682
asg11
I00
sg566
g0
(g164
g2
Ntp1050
Rp1051
(dp1052
g11
I00
sg19
I01
sg37
g317
sg20
I00
sbsg20
I00
sg1045
g0
(g33
g2
Ntp1053
Rp1054
(dp1055
g11
I00
sg19
I00
sg37
I00
sg20
I00
sbsg69
g70
sg1046
g0
(g33
g2
Ntp1056
Rp1057
(dp1058
g11
I00
sg19
I01
sg37
I01
sg20
I00
sbsg683
g0
(g164
g2
Ntp1059
Rp1060
(dp1061
g11
I00
sg19
I01
sg37
g317
sg20
I00
sbsg1047
g0
(g33
g2
Ntp1062
Rp1063
(dp1064
g11
I00
sg19
I01
sg37
I00
sg20
I00
sbsg1044
g0
(g33
g2
Ntp1065
Rp1066
(dp1067
g11
I00
sg19
I01
sg37
I00
sg20
I00
sbsg40
I40
sg1049
g0
(g33
g2
Ntp1068
Rp1069
(dp1070
g11
I00
sg19
I01
sg37
I00
sg20
I00
sbsg270
g1039
sg1048
g0
(g33
g2
Ntp1071
Rp1072
(dp1073
g11
I00
sg19
I01
sg37
I01
sg20
I00
sbsg682
g0
(g33
g2
Ntp1074
Rp1075
(dp1076
g11
I00
sg19
I01
sg37
I01
sg20
I00
sbsg46
g1039
sbsS'MuonDetLayerGeometryESProducer'
p1077
g0
(g253
g2
Ntp1078
Rp1079
(dp1080
g38
(lp1081
sg11
I00
sg20
I00
sg40
I40
sg69
g70
sg270
g1077
sg46
g1077
sbsS'EcalBarrelGeometryFromDBEP'
p1082
g0
(g253
g2
Ntp1083
Rp1084
(dp1085
g38
(lp1086
g682
asg11
I00
sg20
I01
sg40
I40
sg69
g70
sg270
g1082
sg682
g0
(g33
g2
Ntp1087
Rp1088
(dp1089
g11
I00
sg19
I01
sg37
I01
sg20
I01
sbsg46
g1082
sbsS'_Process__vpsets'
p1090
(dp1091
sS'EcalElectronicsMappingBuilder'
p1092
g0
(g253
g2
Ntp1093
Rp1094
(dp1095
g38
(lp1096
sg11
I00
sg20
I00
sg40
I40
sg69
g70
sg270
g1092
sg46
g1092
sbsS'_Process__name'
p1097
S'tupleProduction'
p1098
sg283
g285
sS'sistripconn'
p1099
g0
(g253
g2
Ntp1100
Rp1101
(dp1102
g38
(lp1103
sg11
I00
sg20
I00
sg40
I40
sg69
g70
sg270
g1099
sg46
S'SiStripConnectivity'
p1104
sbsg900
g902
sS'EcalTrigTowerConstituentsMapBuilder'
p1105
g0
(g253
g2
Ntp1106
Rp1107
(dp1108
g38
(lp1109
S'MapFile'
p1110
asg11
I00
sg20
I00
sg1110
g0
(g164
g2
Ntp1111
Rp1112
(dp1113
g11
I00
sg19
I00
sg37
S'Geometry/EcalMapping/data/EndCap_TTMap.txt'
p1114
sg20
I00
sbsg69
g70
sg40
I40
sg270
g1105
sg46
g1105
sbsS'trackerNumberingGeometryDB'
p1115
g0
(g253
g2
Ntp1116
Rp1117
(dp1118
g38
(lp1119
g566
ag681
asg11
I00
sg566
g0
(g164
g2
Ntp1120
Rp1121
(dp1122
g11
I00
sg19
I01
sg37
g317
sg20
I00
sbsg20
I00
sg40
I40
sg69
g70
sg270
g1115
sg681
g0
(g33
g2
Ntp1123
Rp1124
(dp1125
g11
I00
sg19
I01
sg37
I00
sg20
I00
sbsg46
S'TrackerGeometricDetESModule'
p1126
sbsS'idealForDigiCSCGeometry'
p1127
g0
(g253
g2
Ntp1128
Rp1129
(dp1130
g38
(lp1131
g566
ag1044
ag1045
ag1046
ag683
ag1047
ag1048
ag1049
ag682
asg11
I00
sg566
g0
(g164
g2
Ntp1132
Rp1133
(dp1134
g11
I00
sg19
I01
sg37
S'idealForDigi'
p1135
sg20
I01
sbsg20
I01
sg1045
g0
(g33
g2
Ntp1136
Rp1137
(dp1138
g11
I00
sg19
I00
sg37
I00
sg20
I00
sbsg69
S'/cvmfs/cms.cern.ch/slc6_amd64_gcc530/cms/cmssw/CMSSW_8_0_25/python/Geometry/CSCGeometryBuilder/idealForDigiCscGeometryDB_cff.py'
p1139
sg1046
g0
(g33
g2
Ntp1140
Rp1141
(dp1142
g11
I00
sg19
I01
sg37
I01
sg20
I00
sbsg683
g0
(g164
g2
Ntp1143
Rp1144
(dp1145
g11
I00
sg19
I01
sg37
S'fakeForIdeal'
p1146
sg20
I01
sbsg1047
g0
(g33
g2
Ntp1147
Rp1148
(dp1149
g11
I00
sg19
I01
sg37
I00
sg20
I00
sbsg1044
g0
(g33
g2
Ntp1150
Rp1151
(dp1152
g11
I00
sg19
I01
sg37
I00
sg20
I00
sbsg40
I8
sg1049
g0
(g33
g2
Ntp1153
Rp1154
(dp1155
g11
I00
sg19
I01
sg37
I00
sg20
I00
sbsg270
g1127
sg1048
g0
(g33
g2
Ntp1156
Rp1157
(dp1158
g11
I00
sg19
I01
sg37
I01
sg20
I00
sbsg682
g0
(g33
g2
Ntp1159
Rp1160
(dp1161
g11
I00
sg19
I01
sg37
I00
sg20
I01
sbsg46
g1039
sbsS'CaloTowerGeometryFromDBEP'
p1162
g0
(g253
g2
Ntp1163
Rp1164
(dp1165
g38
(lp1166
g682
aS'hcalTopologyConstants'
p1167
asg11
I00
sg20
I01
sg40
I40
sg69
g70
sg1167
g0
(g28
g2
Ntp1168
Rp1169
(dp1170
g11
I00
sg19
I01
sg20
I00
sS'maxDepthHE'
p1171
g0
(g103
g2
Ntp1172
Rp1173
(dp1174
g11
I00
sg19
I01
sg37
I3
sg20
I00
sbsS'maxDepthHB'
p1175
g0
(g103
g2
Ntp1176
Rp1177
(dp1178
g11
I00
sg19
I01
sg37
I2
sg20
I00
sbsg38
(lp1179
g1171
ag1175
aS'mode'
p1180
asg1180
g0
(g164
g2
Ntp1181
Rp1182
(dp1183
g11
I00
sg19
I01
sg37
S'HcalTopologyMode::LHC'
p1184
sg20
I00
sbsbsg270
g1162
sg682
g0
(g33
g2
Ntp1185
Rp1186
(dp1187
g11
I00
sg19
I01
sg37
I00
sg20
I00
sbsg46
g1162
sbsS'_Process__subProcesses'
p1188
(lp1189
sS'_cloneToObjectDict'
p1190
(dp1191
I139779623269200
g885
sI139779623215184
g0
(g253
g2
Ntp1192
Rp1193
(dp1194
g38
(lp1195
g566
ag681
ag682
ag683
asg11
I00
sg566
g0
(g164
g2
Ntp1196
Rp1197
(dp1198
g11
I00
sg19
I01
sg37
g1135
sg20
I01
sbsg20
I01
sg683
g0
(g164
g2
Ntp1199
Rp1200
(dp1201
g11
I00
sg19
I01
sg37
g1146
sg20
I01
sbsg69
S'/cvmfs/cms.cern.ch/slc6_amd64_gcc530/cms/cmssw/CMSSW_8_0_25/python/Geometry/TrackerGeometryBuilder/idealForDigiTrackerGeometryDB_cff.py'
p1202
sg40
I8
sg270
S'idealForDigiTrackerGeometry'
p1203
sg681
g0
(g33
g2
Ntp1204
Rp1205
(dp1206
g11
I00
sg19
I01
sg37
I00
sg20
I00
sbsg682
g0
(g33
g2
Ntp1207
Rp1208
(dp1209
g11
I00
sg19
I01
sg37
I00
sg20
I01
sbsg46
g785
sbsI139779623642000
g1041
sI139779623306192
g0
(g253
g2
Ntp1210
Rp1211
(dp1212
g38
(lp1213
g791
ag792
ag793
asg11
I00
sg20
I01
sg793
g0
(g28
g2
Ntp1214
Rp1215
(dp1216
g11
I00
sg19
I01
sS'maxChgOneMIP'
p1217
g0
(g575
g2
Ntp1218
Rp1219
(dp1220
g11
I00
sg19
I01
sg37
F6000.0
sg20
I00
sbsS'mLC_P2'
p1221
g0
(g575
g2
Ntp1222
Rp1223
(dp1224
g11
I00
sg19
I01
sg37
F0.3
sg20
I00
sbsS'mLC_P1'
p1225
g0
(g575
g2
Ntp1226
Rp1227
(dp1228
g11
I00
sg19
I01
sg37
F0.618
sg20
I00
sbsS'mLC_P0'
p1229
g0
(g575
g2
Ntp1230
Rp1231
(dp1232
g11
I00
sg19
I01
sg37
F-0.326
sg20
I00
sbsS'useLegacyError'
p1233
g0
(g33
g2
Ntp1234
Rp1235
(dp1236
g11
I00
sg19
I01
sg37
I00
sg20
I00
sbsS'mTIB_P1'
p1237
g0
(g575
g2
Ntp1238
Rp1239
(dp1240
g11
I00
sg19
I01
sg37
F0.202
sg20
I00
sbsS'mTEC_P1'
p1241
g0
(g575
g2
Ntp1242
Rp1243
(dp1244
g11
I00
sg19
I01
sg37
F0.471
sg20
I00
sbsS'mTEC_P0'
p1245
g0
(g575
g2
Ntp1246
Rp1247
(dp1248
g11
I00
sg19
I01
sg37
F-1.885
sg20
I00
sbsS'mTOB_P0'
p1249
g0
(g575
g2
Ntp1250
Rp1251
(dp1252
g11
I00
sg19
I01
sg37
F-1.026
sg20
I00
sbsS'mTOB_P1'
p1253
g0
(g575
g2
Ntp1254
Rp1255
(dp1256
g11
I00
sg19
I01
sg37
F0.253
sg20
I00
sbsS'mTIB_P0'
p1257
g0
(g575
g2
Ntp1258
Rp1259
(dp1260
g11
I00
sg19
I01
sg37
F-0.742
sg20
I00
sbsg38
(lp1261
g1217
ag1221
ag1225
ag1229
ag1233
ag1241
ag1245
ag1249
ag1253
ag1257
ag1237
aS'mTID_P0'
p1262
aS'mTID_P1'
p1263
asg1262
g0
(g575
g2
Ntp1264
Rp1265
(dp1266
g11
I00
sg19
I01
sg37
F-1.427
sg20
I00
sbsg1263
g0
(g575
g2
Ntp1267
Rp1268
(dp1269
g11
I00
sg19
I01
sg37
F0.433
sg20
I00
sbsg20
I00
sbsg40
I4
sg792
g0
(g164
g2
Ntp1270
Rp1271
(dp1272
g11
I00
sg19
I01
sg37
S'StripCPEfromTrackAngle'
p1273
sg20
I00
sbsg791
g0
(g164
g2
Ntp1274
Rp1275
(dp1276
g11
I00
sg19
I01
sg37
g1273
sg20
I00
sbsg69
S'/cvmfs/cms.cern.ch/slc6_amd64_gcc530/cms/cmssw/CMSSW_8_0_25/python/RecoLocalTracker/SiStripRecHitConverter/StripCPEfromTrackAngle_cfi.py'
p1277
sg270
S'StripCPEfromTrackAngleESProducer'
p1278
sg46
g806
sbsI139779623175184
g848
sI139779623142480
g765
sI139779623176976
g1094
sI139779623142544
g0
(g253
g2
Ntp1279
Rp1280
(dp1281
g38
(lp1282
sg11
I00
sg20
I00
sg40
I40
sg69
g70
sg270
S'TrackerRecoGeometryESProducer'
p1283
sg46
g1283
sbsI139779622892048
g0
(cFWCore.ParameterSet.SequenceTypes
Path
p1284
g2
Ntp1285
Rp1286
(dp1287
g11
I00
sg276
g0
(g287
g2
Ntp1288
Rp1289
(dp1290
g291
(lp1291
g281
ag274
ag285
asbsg20
I00
sg270
S'p'
p1292
sbsI139779623175376
g0
(g253
g2
Ntp1293
Rp1294
(dp1295
g38
(lp1296
sg11
I00
sg20
I00
sg40
I40
sg69
g70
sg270
S'CaloTowerTopologyEP'
p1297
sg46
g1297
sbsI139779623142672
g0
(g253
g2
Ntp1298
Rp1299
(dp1300
g38
(lp1301
g566
asg11
I00
sg566
g0
(g164
g2
Ntp1302
Rp1303
(dp1304
g11
I00
sg19
I01
sg37
g317
sg20
I00
sbsg20
I00
sg40
I40
sg69
g70
sg270
S'trackerTopology'
p1305
sg46
S'TrackerTopologyEP'
p1306
sbsI139779622891984
g385
sI139779623517584
g0
(g253
g2
Ntp1307
Rp1308
(dp1309
g38
(lp1310
S'version'
p1311
ag713
ag515
asg11
I00
sg20
I01
sg40
I40
sg69
g70
sg515
g0
(g164
g2
Ntp1312
Rp1313
(dp1314
g11
I00
sg19
I00
sg37
S'ParabolicMf'
p1315
sg20
I01
sbsg1311
g0
(g164
g2
Ntp1316
Rp1317
(dp1318
g11
I00
sg19
I01
sg37
S'Parabolic'
p1319
sg20
I00
sbsg713
g0
(g103
g2
Ntp1320
Rp1321
(dp1322
g11
I00
sg19
I01
sg37
I-1
sg20
I00
sbsg270
S'ParabolicParametrizedMagneticFieldProducer'
p1323
sg46
S'AutoParametrizedMagneticFieldProducer'
p1324
sbsI139779623308304
g281
sI139779623269776
g0
(cFWCore.ParameterSet.Modules
ESPrefer
p1325
g2
Ntp1326
Rp1327
(dp1328
g38
(lp1329
sg11
I00
sg20
I00
sS'_targetLabel'
p1330
g900
sg40
I73
sg69
g70
sg270
S'es_prefer_hcalHardcode'
p1331
sg46
g936
sbsI139779623142864
g1079
sI139779623343952
g295
sI139779623216144
g1129
sI139779623175888
g0
(g253
g2
Ntp1332
Rp1333
(dp1334
g38
(lp1335
g682
asg11
I00
sg20
I00
sg40
I40
sg69
g70
sg270
S'ZdcGeometryFromDBEP'
p1336
sg682
g0
(g33
g2
Ntp1337
Rp1338
(dp1339
g11
I00
sg19
I01
sg37
I00
sg20
I00
sbsg46
g1336
sbsI139779623305744
g506
sI139779623216976
g0
(g253
g2
Ntp1340
Rp1341
(dp1342
g38
(lp1343
g566
ag681
ag682
ag683
asg11
I00
sg566
g0
(g164
g2
Ntp1344
Rp1345
(dp1346
g11
I00
sg19
I01
sg37
g1135
sg20
I01
sbsg20
I01
sg683
g0
(g164
g2
Ntp1347
Rp1348
(dp1349
g11
I00
sg19
I01
sg37
g1146
sg20
I01
sbsg69
S'/cvmfs/cms.cern.ch/slc6_amd64_gcc530/cms/cmssw/CMSSW_8_0_25/python/Geometry/DTGeometryBuilder/idealForDigiDtGeometryDB_cff.py'
p1350
sg40
I8
sg270
S'idealForDigiDTGeometry'
p1351
sg681
g0
(g33
g2
Ntp1352
Rp1353
(dp1354
g11
I00
sg19
I01
sg37
I00
sg20
I00
sbsg682
g0
(g33
g2
Ntp1355
Rp1356
(dp1357
g11
I00
sg19
I01
sg37
I00
sg20
I01
sbsg46
g676
sbsI139779623176208
g752
sI139779623309072
g274
sI139779623143696
g255
sI139779623176528
g1107
sI139779623307664
g1101
sI139779623218768
g939
sI139779623344656
g285
sI139779623307536
g0
(g253
g2
Ntp1358
Rp1359
(dp1360
g38
(lp1361
S'PreFilter'
p1362
ag792
aS'NSigmaInside'
p1363
asg11
I00
sg20
I00
sg69
g70
sg792
g0
(g164
g2
Ntp1364
Rp1365
(dp1366
g11
I00
sg19
I01
sg37
S'StandardMatcher'
p1367
sg20
I00
sbsg1362
g0
(g33
g2
Ntp1368
Rp1369
(dp1370
g11
I00
sg19
I01
sg37
I00
sg20
I00
sbsg40
I40
sg1363
g0
(g575
g2
Ntp1371
Rp1372
(dp1373
g11
I00
sg19
I01
sg37
F3.0
sg20
I00
sbsg270
S'SiStripRecHitMatcherESProducer'
p1374
sg46
g1374
sbsI139779623144080
g0
(g253
g2
Ntp1375
Rp1376
(dp1377
g38
(lp1378
g682
asg11
I00
sg20
I01
sg40
I40
sg69
g70
sg270
S'EcalEndcapGeometryFromDBEP'
p1379
sg682
g0
(g33
g2
Ntp1380
Rp1381
(dp1382
g11
I00
sg19
I01
sg37
I01
sg20
I01
sbsg46
g1379
sbsI139779623142288
g770
sI139779623144208
g1018
sI139779623144336
g1084
sI139779623308048
g1026
sI139779623177232
g730
sI139779623308368
g863
sI139779623308560
g0
(g253
g2
Ntp1383
Rp1384
(dp1385
g38
(lp1386
g571
asg11
I00
sg20
I01
sg40
I40
sg69
g70
sg571
g0
(g331
g14
(lp1387
g0
(g28
g2
Ntp1388
Rp1389
(dp1390
g11
I00
sg19
I01
sg20
I00
sg519
g0
(g164
g2
Ntp1391
Rp1392
(dp1393
g11
I00
sg19
I01
sg37
S'SiPixelQualityFromDbRcd'
p1394
sg20
I00
sbsg593
g0
(g164
g2
Ntp1395
Rp1396
(dp1397
g11
I00
sg19
I01
sg37
g317
sg20
I00
sbsg38
(lp1398
g519
ag593
asbag0
(g28
g2
Ntp1399
Rp1400
(dp1401
g11
I00
sg19
I01
sg20
I00
sg519
g0
(g164
g2
Ntp1402
Rp1403
(dp1404
g11
I00
sg19
I01
sg37
S'SiPixelDetVOffRcd'
p1405
sg20
I00
sbsg593
g0
(g164
g2
Ntp1406
Rp1407
(dp1408
g11
I00
sg19
I01
sg37
g317
sg20
I00
sbsg38
(lp1409
g519
ag593
asbatp1410
Rp1411
(dp1412
g11
I00
sg19
I01
sg20
I00
sg21
I1
sbsg270
S'siPixelQualityESProducer'
p1413
sg46
S'SiPixelQualityESProducer'
p1414
sbsI139779623143248
g760
sI139779623306064
g788
sI139779623644560
g0
(g253
g2
Ntp1415
Rp1416
(dp1417
g38
(lp1418
g1044
aS'compatibiltyWith11'
p1419
asg11
I00
sg20
I00
sg40
I40
sg69
g70
sg1044
g0
(g33
g2
Ntp1420
Rp1421
(dp1422
g11
I00
sg19
I00
sg37
I00
sg20
I00
sbsg1419
g0
(g33
g2
Ntp1423
Rp1424
(dp1425
g11
I00
sg19
I00
sg37
I01
sg20
I00
sbsg270
S'RPCGeometryESModule'
p1426
sg46
g1426
sbsI139779623144912
g0
(g253
g2
Ntp1427
Rp1428
(dp1429
g38
(lp1430
g682
ag1167
asg11
I00
sg20
I01
sg40
I40
sg69
g70
sg1167
g0
(g28
g2
Ntp1431
Rp1432
(dp1433
g11
I00
sg19
I01
sg20
I00
sg1171
g0
(g103
g2
Ntp1434
Rp1435
(dp1436
g11
I00
sg19
I01
sg37
I3
sg20
I00
sbsg1175
g0
(g103
g2
Ntp1437
Rp1438
(dp1439
g11
I00
sg19
I01
sg37
I2
sg20
I00
sbsg38
(lp1440
g1171
ag1175
ag1180
asg1180
g0
(g164
g2
Ntp1441
Rp1442
(dp1443
g11
I00
sg19
I01
sg37
g1184
sg20
I00
sbsbsg270
S'HcalGeometryFromDBEP'
p1444
sg682
g0
(g33
g2
Ntp1445
Rp1446
(dp1447
g11
I00
sg19
I01
sg37
I01
sg20
I01
sbsg46
g1444
sbsI139779623177744
g0
(g253
g2
Ntp1448
Rp1449
(dp1450
g38
(lp1451
g566
asg11
I00
sg566
g0
(g164
g2
Ntp1452
Rp1453
(dp1454
g11
I00
sg19
I01
sg37
g317
sg20
I00
sbsg20
I00
sg40
I40
sg69
g70
sg270
S'hcalDDDSimConstants'
p1455
sg46
S'HcalDDDSimConstantsESModule'
p1456
sbsI139779623464528
g872
sI139779623272208
g809
sI139779623178064
g1031
sI139779623517072
g710
sI139779623145424
g1013
sI139779623141456
g678
sI139779623269712
g902
sI139779623342288
g563
sI139779623141840
g1117
sI139779623174672
g1164
sI139779623271312
g0
(g253
g2
Ntp1457
Rp1458
(dp1459
g38
(lp1460
S'printDebug'
p1461
ag566
aS'APVGain'
p1462
aS'AutomaticNormalization'
p1463
asg11
I00
sg566
g0
(g164
g2
Ntp1464
Rp1465
(dp1466
g11
I00
sg19
I01
sg37
g317
sg20
I00
sbsg20
I00
sg1463
g0
(g33
g2
Ntp1467
Rp1468
(dp1469
g11
I00
sg19
I01
sg37
I00
sg20
I00
sbsg40
I40
sg1461
g0
(g33
g2
Ntp1470
Rp1471
(dp1472
g11
I00
sg19
I00
sg37
I00
sg20
I00
sbsg69
g70
sg1462
g0
(g331
g14
(lp1473
g0
(g28
g2
Ntp1474
Rp1475
(dp1476
g11
I00
sg19
I01
sg20
I00
sS'Label'
p1477
g0
(g164
g2
Ntp1478
Rp1479
(dp1480
g11
I00
sg19
I00
sg37
g317
sg20
I00
sbsS'Record'
p1481
g0
(g164
g2
Ntp1482
Rp1483
(dp1484
g11
I00
sg19
I01
sg37
S'SiStripApvGainRcd'
p1485
sg20
I00
sbsS'NormalizationFactor'
p1486
g0
(g575
g2
Ntp1487
Rp1488
(dp1489
g11
I00
sg19
I00
sg37
F1.0
sg20
I00
sbsg38
(lp1490
g1481
ag1486
ag1477
asbag0
(g28
g2
Ntp1491
Rp1492
(dp1493
g11
I00
sg19
I01
sg20
I00
sg1477
g0
(g164
g2
Ntp1494
Rp1495
(dp1496
g11
I00
sg19
I00
sg37
g317
sg20
I00
sbsg1481
g0
(g164
g2
Ntp1497
Rp1498
(dp1499
g11
I00
sg19
I01
sg37
S'SiStripApvGain2Rcd'
p1500
sg20
I00
sbsg1486
g0
(g575
g2
Ntp1501
Rp1502
(dp1503
g11
I00
sg19
I00
sg37
F1.0
sg20
I00
sbsg38
(lp1504
g1481
ag1486
ag1477
asbatp1505
Rp1506
(dp1507
g11
I00
sg19
I01
sg20
I00
sg21
I1
sbsg270
S'siStripGainESProducer'
p1508
sg46
S'SiStripGainESProducer'
p1509
sbsI139779623269008
g673
sI139779623215888
g0
(g253
g2
Ntp1510
Rp1511
(dp1512
g38
(lp1513
g566
asg11
I00
sg566
g0
(g164
g2
Ntp1514
Rp1515
(dp1516
g11
I00
sg19
I01
sg37
g1146
sg20
I01
sbsg20
I01
sg40
I5
sg69
S'/cvmfs/cms.cern.ch/slc6_amd64_gcc530/cms/cmssw/CMSSW_8_0_25/python/Alignment/CommonAlignmentProducer/fakeForIdealAlignmentProducer_cfi.py'
p1517
sg270
S'fakeForIdealAlignment'
p1518
sg46
S'FakeAlignmentProducer'
p1519
sbssg1297
g1294
sg1508
g1458
sg1444
g1428
sg1426
g1416
sg1351
g1341
sS'_Process__esprefers'
p1520
(dp1521
g1331
g1327
ssg1336
g1333
sS'_Process__schedule'
p1522
Nsg1379
g1376
sS'_Process__outputmodules'
p1523
(dp1524
sS'_Process__analyzers'
p1525
(dp1526
g466
g385
sg323
g295
ssS'_Process__InExtendCall'
p1527
I00
sg279
g281
sg1331
g1327
sg1374
g1359
sg1203
g1193
sS'_Process__modifiers'
p1528
(tsS'_Process__producers'
p1529
(dp1530
sg466
g385
sg323
g295
sg1323
g1308
sg937
g939
sS'_Process__filters'
p1531
(dp1532
sg707
g699
sS'_Process__looper'
p1533
Nsg1413
g1384
sg1278
g1211
sS'_Process__endpaths'
p1534
g0
(cFWCore.ParameterSet.DictTypes
SortedKeysDict
p1535
c__builtin__
dict
p1536
(dp1537
tp1538
Rp1539
(dp1540
S'list'
p1541
(lp1542
sbsS'_Process__esproducers'
p1543
(dp1544
g252
g255
sg671
g673
sg1283
g1280
sg708
g710
sg1278
g1211
sg1444
g1428
sg758
g760
sg763
g765
sg768
g770
sg807
g809
sg846
g848
sg1011
g1013
sg1016
g1018
sg1024
g1026
sg1029
g1031
sg1039
g1041
sg1082
g1084
sg1115
g1117
sg1092
g1094
sg1105
g1107
sg1127
g1129
sg1162
g1164
sg504
g506
sg883
g885
sg1508
g1458
sg1374
g1359
sg1426
g1416
sg1351
g1341
sg1336
g1333
sg676
g678
sg561
g563
sg1099
g1101
sg1413
g1384
sg1203
g1193
sg1297
g1294
sg1323
g1308
sg786
g788
sg1455
g1449
sg1077
g1079
sg1305
g1299
sg1379
g1376
sg1518
g1511
sg750
g752
ssg1455
g1449
sS'_Process__paths'
p1545
g0
(g1535
g1536
(dp1546
g1292
g1286
stp1547
Rp1548
(dp1549
g1541
(lp1550
g1292
asbsg1305
g1299
sg1283
g1280
sS'_Process__partialschedules'
p1551
(dp1552
sg1518
g1511
sg1292
g1286
sg870
g872
sS'_Process__isStrict'
p1553
I00
sb.