(dp1
S'OriginalConfig'
p2
ccopy_reg
_reconstructor
p3
(cWMCore.Configuration
Configuration
p4
c__builtin__
object
p5
NtRp6
(dp7
S'Site'
p8
g3
(cWMCore.Configuration
ConfigSection
p9
g5
NtRp10
(dp11
S'_internal_skipChecks'
p12
I00
sS'_internal_documentation'
p13
S''
sS'_internal_settings'
p14
c__builtin__
set
p15
((lp16
S'storageSite'
p17
atRp18
sS'_internal_name'
p19
g8
sS'_internal_docstrings'
p20
(dp21
sS'_internal_children'
p22
g15
((ltRp23
sg17
S'T2_CH_CERN'
p24
sS'_internal_parent_ref'
p25
NsbsS'_internal_sections'
p26
(lp27
S'General'
p28
aS'JobType'
p29
aS'Data'
p30
ag8
aS'User'
p31
aS'Debug'
p32
asg28
g3
(g9
g5
NtRp33
(dp34
S'transferLogs'
p35
I01
sg12
I00
sg13
S''
sg14
g15
((lp36
g35
aS'transferOutputs'
p37
aS'workArea'
p38
aS'requestName'
p39
atRp40
sg19
g28
sg20
(dp41
sg37
I01
sg22
g15
((ltRp42
sg39
S'VBFHToTauTau_M125_13TeV'
p43
sg25
Nsg38
S'work_area'
p44
sbsS'_internal_webapps'
p45
(lp46
sg31
g3
(g9
g5
NtRp47
(dp48
g12
I00
sg13
S''
sg14
g15
((ltRp49
sg19
g31
sg20
(dp50
sg22
g15
((ltRp51
sg25
NsbsS'_internal_components'
p52
(lp53
sg32
g3
(g9
g5
NtRp54
(dp55
g12
I00
sg13
S''
sg14
g15
((ltRp56
sg19
g32
sg20
(dp57
sg22
g15
((ltRp58
sg25
Nsbsg30
g3
(g9
g5
NtRp59
(dp60
S'inputDataset'
p61
S'/VBFHToTauTau_M125_13TeV_powheg_pythia8/manzoni-doubleTauTriggerOpenPt-f0f95fcb48a134c1be232a337d74828f/USER'
p62
sg12
I00
sS'splitting'
p63
S'EventAwareLumiBased'
p64
sS'unitsPerJob'
p65
I30
sg13
S''
sg14
g15
((lp66
g61
aS'inputDBS'
p67
aS'publication'
p68
ag65
ag63
aS'lumiMask'
p69
aS'outLFNDirBase'
p70
atRp71
sg19
g30
sg67
S'phys03'
p72
sg20
(dp73
sg22
g15
((ltRp74
sg70
S'/store/group/phys_tau/mgrippo/tau_trigger_open_pt_VBF'
p75
sg25
Nsg69
S''
sg68
I00
sbsg29
g3
(g9
g5
NtRp76
(dp77
g12
I00
sS'pyCfgParams'
p78
(lp79
S'anaChannels=tauTau'
p80
aS'applyTriggerMatch=True'
p81
aS'sampleType=Spring16MC'
p82
aS'ReRunJEC=False'
p83
aS'globalTag=80X_mcRun2_asymptotic_2016_TrancheIV_v6'
p84
aS'runSVfit=False'
p85
aS'runKinFit=False'
p86
aS'energyScales=Central'
p87
aS'productionMode=h_tt_sm'
p88
asg13
S''
sg14
g15
((lp89
S'psetName'
p90
aS'pluginName'
p91
ag78
atRp92
sg19
g29
sg20
(dp93
sg91
S'Analysis'
p94
sg22
g15
((ltRp95
sg90
S'../python/Production.py'
p96
sg25
NsbsbsS'voGroup'
p97
S''
sS'Server'
p98
S'cmsweb.cern.ch'
p99
sS'instance'
p100
S'prod'
p101
sS'RequestName'
p102
V170403_132253:mgrippo_crab_VBFHToTauTau_M125_13TeV
p103
sS'voRole'
p104
S'NULL'
p105
sS'Port'
p106
S''
s.